target datalayout = "e-m:e-p270:32:32-p271:32:32-p272:64:64-i64:64-i128:128-f80:128-n8:16:32:64-S128"
target triple = "x86_64-pc-linux-gnu"

%struct.VVCLocalContext = type { i8, i8, i8, i8, i32, i32, [4 x i8], [3276800 x i8], [16384 x i16], [16384 x i16], [16384 x i16], [32768 x i8], [332800 x i8], [368640 x i8], [368640 x i8], [17424 x i32], %struct.anon, %struct.anon.0, ptr, [2 x [1024 x %struct.ReconstructedArea]], [2 x i32], %struct.NeighbourAvailable, i32, ptr, ptr, ptr, ptr }
%struct.anon = type { i32, i8, i32, i32, i32, [3 x i32], i32, i32, i32, i32, i32, i32 }
%struct.anon.0 = type { i32, i32, i32 }
%struct.ReconstructedArea = type { i32, i32, i32, i32 }
%struct.NeighbourAvailable = type { i32, i32, i32, i32, i32 }
%struct.VVCFrameContext = type { ptr, [17 x %struct.VVCFrame], ptr, ptr, %struct.VVCFrameParamSets, ptr, i32, i32, ptr, %struct.VVCDSPContext, %struct.VideoDSPContext, ptr, i64, ptr, ptr, ptr, ptr, %struct.anon.1 }
%struct.VVCFrame = type { ptr, ptr, ptr, ptr, ptr, ptr, i32, i32, i32, %struct.VVCWindow, i32, i32, ptr, ptr, i16, i8, ptr }
%struct.VVCWindow = type { i16, i16, i16, i16 }
%struct.VVCFrameParamSets = type { ptr, ptr, %struct.VVCPH, [8 x ptr], %struct.VVCLMCS, ptr }
%struct.VVCPH = type { ptr, ptr, i32, i32, i8, [3 x i16], i8, [3 x i16], %struct.PredWeightTable }
%struct.PredWeightTable = type { [2 x i8], [2 x i8], [2 x [2 x [15 x i8]]], [2 x [3 x [15 x i16]]], [2 x [3 x [15 x i16]]] }
%struct.VVCLMCS = type { i8, i8, %union.anon, %union.anon, [17 x i16], [16 x i16] }
%union.anon = type { [4096 x i16] }
%struct.VVCDSPContext = type { %struct.VVCInterDSPContext, %struct.VVCIntraDSPContext, %struct.VVCItxDSPContext, %struct.VVCLMCSDSPContext, %struct.VVCLFDSPContext, %struct.VVCSAODSPContext, %struct.VVCALFDSPContext }
%struct.VVCInterDSPContext = type { [2 x [7 x [2 x [2 x ptr]]]], [2 x [7 x [2 x [2 x ptr]]]], [2 x [7 x [2 x [2 x ptr]]]], [2 x [7 x ptr]], [2 x [7 x ptr]], [2 x [7 x ptr]], ptr, ptr, ptr, ptr, ptr, ptr, ptr, ptr, ptr, ptr, ptr, [2 x [2 x ptr]] }
%struct.VVCIntraDSPContext = type { ptr, ptr, ptr, ptr, ptr, ptr, ptr, ptr, ptr, ptr }
%struct.VVCItxDSPContext = type { ptr, ptr, [3 x [6 x ptr]], ptr, ptr }
%struct.VVCLMCSDSPContext = type { ptr }
%struct.VVCLFDSPContext = type { [2 x ptr], [2 x ptr], [2 x ptr] }
%struct.VVCSAODSPContext = type { [9 x ptr], [9 x ptr], [2 x ptr] }
%struct.VVCALFDSPContext = type { [2 x ptr], ptr, ptr, ptr }
%struct.VideoDSPContext = type { ptr, ptr }
%struct.anon.1 = type { ptr, ptr, ptr, ptr, [2 x ptr], [2 x ptr], [2 x ptr], [2 x ptr], [2 x ptr], [3 x ptr], ptr, ptr, [2 x ptr], ptr, ptr, [2 x ptr], ptr, ptr, ptr, [2 x ptr], ptr, [3 x ptr], ptr, [2 x ptr], [2 x ptr], [2 x ptr], [2 x [3 x ptr]], [2 x ptr], [2 x ptr], [3 x ptr], [3 x ptr], [3 x [2 x ptr]], [3 x [2 x ptr]], ptr, ptr, ptr, [3 x ptr], %struct.anon.2 }
%struct.anon.2 = type { i32, i32, i32, i32, i32, i32, i32, i32, i32, i32, i32, i32 }
%struct.VVCPPS = type { ptr, [3 x i8], [6 x [3 x i8]], i16, i16, [1000 x i16], [1000 x i16], i16, i16, i16, i16, i32, i16, i16, i16, i16, ptr, ptr, ptr, ptr, ptr, i16, i16, i16, i16, i16, [1000 x i16], [1000 x i16], [1000 x i16], [1000 x i16] }
%struct.H266RawNALUnitHeader = type { i8, i8, i8, i8 }
%struct.H266RefPicListStruct = type { i8, i8, [29 x i8], [29 x i8], [29 x i8], [29 x i8], [29 x i8], [29 x i8] }
%struct.H266RawExtensionData = type { ptr, ptr, i64 }
%struct.SliceContext = type { i32, %struct.VVCSH, ptr, i32, ptr, ptr }
%struct.VVCSH = type { ptr, i32, ptr, %struct.PredWeightTable, [2 x i8], i8, %struct.DBParams, [2 x i8], [2 x i8], [2 x i8], [2 x i8], i8, i8, [4050 x i32] }
%struct.DBParams = type { [3 x i8], [3 x i8] }
%struct.H266RawSliceHeader = type { %struct.H266RawNALUnitHeader, i8, %struct.H266RawPictureHeader, i16, i16, [16 x i8], i8, i8, i8, i8, i8, [8 x i8], i8, i8, i8, i8, i8, i8, i8, i8, i8, %struct.H266RefPicLists, i8, [2 x i8], i8, i8, i8, %struct.H266RawPredWeightTable, i8, i8, i8, i8, i8, i8, i8, i8, i8, i8, i8, i8, i8, i8, i8, i8, i8, i8, i8, i8, i16, [256 x i8], i8, [4050 x i32], i16, i32, [2 x i8] }
%struct.H266RawPictureHeader = type { i8, i8, i8, i8, i8, i8, i16, i8, [16 x i8], i8, i8, i8, i8, [8 x i8], i8, i8, i8, i8, i8, i8, i8, i8, i8, i8, i8, i8, i8, i8, [3 x i16], i8, [3 x i16], i8, %struct.H266RefPicLists, i8, i8, i8, i8, i8, i8, i8, i8, i8, i8, i8, i8, i8, i8, i8, i8, i8, i8, i8, i8, i8, i8, i8, i8, i8, %struct.H266RawPredWeightTable, i8, i8, i8, i8, i8, i8, i8, i8, i8, i8, i8, i8, i8, [256 x i8] }
%struct.H266RefPicLists = type { [2 x i8], [2 x i8], [2 x %struct.H266RefPicListStruct], [2 x [29 x i16]], [2 x [29 x i8]], [2 x [29 x i16]] }
%struct.H266RawPredWeightTable = type { i8, i8, i8, [15 x i8], [15 x i8], [15 x i8], [15 x i8], [15 x [2 x i8]], [15 x [2 x i16]], i8, [15 x i8], [15 x i8], [15 x i8], [15 x i8], [15 x [2 x i8]], [15 x [2 x i16]], i8, i8 }
%struct.H266RawPPS = type { %struct.H266RawNALUnitHeader, i8, i8, i8, i16, i16, i8, i16, i16, i16, i16, i8, i16, i16, i16, i16, i8, i8, i8, i16, i8, [1000 x i16], i8, i8, i8, [30 x i16], [990 x i16], i8, i8, i8, i16, i8, [1000 x i16], [1000 x i16], [1000 x i16], [1000 x [990 x i16]], [1000 x i16], i8, i8, [2 x i8], i8, i8, i8, i8, i16, i8, i8, i8, i8, i8, i8, i8, i8, i8, i8, [6 x i8], [6 x i8], [6 x i8], i8, i8, i8, i8, i8, i8, i8, i8, i8, i8, i8, i8, i8, i8, i8, i8, i8, i8, %struct.H266RawExtensionData, i16, i16, i16, [1000 x i16], [1000 x i16], [1000 x i16], [30 x i16], [990 x i16], [1000 x i16], [1000 x i16] }

; Function Attrs: nounwind uwtable
define internal i32 @dual_tree_implicit_qt_split(ptr noundef %0, i32 noundef %1, i32 noundef %2, i32 noundef %3, i32 noundef %4) #0 {
  %6 = alloca i32, align 4
  %7 = alloca ptr, align 8
  %8 = alloca i32, align 4
  %9 = alloca i32, align 4
  %10 = alloca i32, align 4
  %11 = alloca i32, align 4
  %12 = alloca ptr, align 8
  %13 = alloca ptr, align 8
  %14 = alloca ptr, align 8
  %15 = alloca i32, align 4
  %16 = alloca i32, align 4
  %17 = alloca i32, align 4
  %18 = alloca i32, align 4
  %19 = alloca i32, align 4
  %20 = alloca i32, align 4
  %21 = alloca i32, align 4
  store ptr %0, ptr %7, align 8, !tbaa !4
  store i32 %1, ptr %8, align 4, !tbaa !9
  store i32 %2, ptr %9, align 4, !tbaa !9
  store i32 %3, ptr %10, align 4, !tbaa !9
  store i32 %4, ptr %11, align 4, !tbaa !9
  call void @llvm.lifetime.start.p0(i64 8, ptr %12) #7
  %22 = load ptr, ptr %7, align 8, !tbaa !4
  %23 = getelementptr inbounds nuw %struct.VVCLocalContext, ptr %22, i32 0, i32 23
  %24 = load ptr, ptr %23, align 16, !tbaa !89
  %25 = getelementptr inbounds nuw %struct.SliceContext, ptr %24, i32 0, i32 1
  store ptr %25, ptr %12, align 8, !tbaa !106
  call void @llvm.lifetime.start.p0(i64 8, ptr %13) #7
  %26 = load ptr, ptr %12, align 8, !tbaa !106
  %27 = getelementptr inbounds nuw %struct.VVCSH, ptr %26, i32 0, i32 0
  %28 = load ptr, ptr %27, align 8, !tbaa !108
  store ptr %28, ptr %13, align 8, !tbaa !109
  call void @llvm.lifetime.start.p0(i64 8, ptr %14) #7
  %29 = load ptr, ptr %7, align 8, !tbaa !4
  %30 = getelementptr inbounds nuw %struct.VVCLocalContext, ptr %29, i32 0, i32 24
  %31 = load ptr, ptr %30, align 8, !tbaa !11
  %32 = getelementptr inbounds nuw %struct.VVCFrameContext, ptr %31, i32 0, i32 4
  %33 = getelementptr inbounds nuw %struct.VVCFrameParamSets, ptr %32, i32 0, i32 1
  %34 = load ptr, ptr %33, align 8, !tbaa !59
  store ptr %34, ptr %14, align 8, !tbaa !60
  call void @llvm.lifetime.start.p0(i64 4, ptr %15) #7
  %35 = load i32, ptr %11, align 4, !tbaa !9
  %36 = mul nsw i32 2, %35
  store i32 %36, ptr %15, align 4, !tbaa !9
  call void @llvm.lifetime.start.p0(i64 4, ptr %16) #7
  %37 = load i32, ptr %10, align 4, !tbaa !9
  %38 = icmp sgt i32 %37, 64
  br i1 %38, label %39, label %194

39:                                               ; preds = %5
  call void @llvm.lifetime.start.p0(i64 4, ptr %17) #7
  %40 = load i32, ptr %8, align 4, !tbaa !9
  %41 = load i32, ptr %10, align 4, !tbaa !9
  %42 = sdiv i32 %41, 2
  %43 = add nsw i32 %40, %42
  store i32 %43, ptr %17, align 4, !tbaa !9
  call void @llvm.lifetime.start.p0(i64 4, ptr %18) #7
  %44 = load i32, ptr %9, align 4, !tbaa !9
  %45 = load i32, ptr %10, align 4, !tbaa !9
  %46 = sdiv i32 %45, 2
  %47 = add nsw i32 %44, %46
  store i32 %47, ptr %18, align 4, !tbaa !9
  %48 = load ptr, ptr %14, align 8, !tbaa !60
  %49 = getelementptr inbounds nuw %struct.VVCPPS, ptr %48, i32 0, i32 0
  %50 = load ptr, ptr %49, align 8, !tbaa !198
  %51 = getelementptr inbounds nuw %struct.H266RawPPS, ptr %50, i32 0, i32 46
  %52 = load i8, ptr %51, align 1, !tbaa !199
  %53 = zext i8 %52 to i32
  %54 = icmp ne i32 %53, 0
  br i1 %54, label %55, label %74

55:                                               ; preds = %39
  %56 = load i32, ptr %15, align 4, !tbaa !9
  %57 = load ptr, ptr %12, align 8, !tbaa !106
  %58 = getelementptr inbounds nuw %struct.VVCSH, ptr %57, i32 0, i32 11
  %59 = load i8, ptr %58, align 1, !tbaa !201
  %60 = zext i8 %59 to i32
  %61 = icmp sle i32 %56, %60
  br i1 %61, label %62, label %74

62:                                               ; preds = %55
  %63 = load ptr, ptr %7, align 8, !tbaa !4
  %64 = getelementptr inbounds nuw %struct.VVCLocalContext, ptr %63, i32 0, i32 16
  %65 = getelementptr inbounds nuw %struct.anon, ptr %64, i32 0, i32 1
  store i8 0, ptr %65, align 4, !tbaa !202
  %66 = load i32, ptr %8, align 4, !tbaa !9
  %67 = load ptr, ptr %7, align 8, !tbaa !4
  %68 = getelementptr inbounds nuw %struct.VVCLocalContext, ptr %67, i32 0, i32 16
  %69 = getelementptr inbounds nuw %struct.anon, ptr %68, i32 0, i32 2
  store i32 %66, ptr %69, align 8, !tbaa !203
  %70 = load i32, ptr %9, align 4, !tbaa !9
  %71 = load ptr, ptr %7, align 8, !tbaa !4
  %72 = getelementptr inbounds nuw %struct.VVCLocalContext, ptr %71, i32 0, i32 16
  %73 = getelementptr inbounds nuw %struct.anon, ptr %72, i32 0, i32 3
  store i32 %70, ptr %73, align 4, !tbaa !204
  br label %74

74:                                               ; preds = %62, %55, %39
  %75 = load ptr, ptr %13, align 8, !tbaa !109
  %76 = getelementptr inbounds nuw %struct.H266RawSliceHeader, ptr %75, i32 0, i32 32
  %77 = load i8, ptr %76, align 2, !tbaa !205
  %78 = zext i8 %77 to i32
  %79 = icmp ne i32 %78, 0
  br i1 %79, label %80, label %95

80:                                               ; preds = %74
  %81 = load i32, ptr %15, align 4, !tbaa !9
  %82 = load ptr, ptr %12, align 8, !tbaa !106
  %83 = getelementptr inbounds nuw %struct.VVCSH, ptr %82, i32 0, i32 12
  %84 = load i8, ptr %83, align 2, !tbaa !206
  %85 = zext i8 %84 to i32
  %86 = icmp sle i32 %81, %85
  br i1 %86, label %87, label %95

87:                                               ; preds = %80
  %88 = load ptr, ptr %7, align 8, !tbaa !4
  %89 = getelementptr inbounds nuw %struct.VVCLocalContext, ptr %88, i32 0, i32 16
  %90 = getelementptr inbounds nuw %struct.anon, ptr %89, i32 0, i32 4
  store i32 0, ptr %90, align 16, !tbaa !207
  %91 = load ptr, ptr %7, align 8, !tbaa !4
  %92 = getelementptr inbounds nuw %struct.VVCLocalContext, ptr %91, i32 0, i32 16
  %93 = getelementptr inbounds nuw %struct.anon, ptr %92, i32 0, i32 5
  %94 = getelementptr inbounds [3 x i32], ptr %93, i64 0, i64 0
  call void @llvm.memset.p0.i64(ptr align 4 %94, i8 0, i64 12, i1 false)
  br label %95

95:                                               ; preds = %87, %80, %74
  br label %96

96:                                               ; preds = %95
  %97 = load ptr, ptr %7, align 8, !tbaa !4
  %98 = load i32, ptr %8, align 4, !tbaa !9
  %99 = load i32, ptr %9, align 4, !tbaa !9
  %100 = load i32, ptr %10, align 4, !tbaa !9
  %101 = sdiv i32 %100, 2
  %102 = load i32, ptr %11, align 4, !tbaa !9
  %103 = add nsw i32 %102, 1
  %104 = call i32 @dual_tree_implicit_qt_split(ptr noundef %97, i32 noundef %98, i32 noundef %99, i32 noundef %101, i32 noundef %103)
  store i32 %104, ptr %16, align 4, !tbaa !9
  %105 = load i32, ptr %16, align 4, !tbaa !9
  %106 = icmp slt i32 %105, 0
  br i1 %106, label %107, label %109

107:                                              ; preds = %96
  %108 = load i32, ptr %16, align 4, !tbaa !9
  store i32 %108, ptr %6, align 4
  store i32 1, ptr %19, align 4
  br label %191

109:                                              ; preds = %96
  br label %110

110:                                              ; preds = %109
  br label %111

111:                                              ; preds = %110
  %112 = load i32, ptr %17, align 4, !tbaa !9
  %113 = load ptr, ptr %14, align 8, !tbaa !60
  %114 = getelementptr inbounds nuw %struct.VVCPPS, ptr %113, i32 0, i32 3
  %115 = load i16, ptr %114, align 2, !tbaa !81
  %116 = zext i16 %115 to i32
  %117 = icmp slt i32 %112, %116
  br i1 %117, label %118, label %135

118:                                              ; preds = %111
  br label %119

119:                                              ; preds = %118
  %120 = load ptr, ptr %7, align 8, !tbaa !4
  %121 = load i32, ptr %17, align 4, !tbaa !9
  %122 = load i32, ptr %9, align 4, !tbaa !9
  %123 = load i32, ptr %10, align 4, !tbaa !9
  %124 = sdiv i32 %123, 2
  %125 = load i32, ptr %11, align 4, !tbaa !9
  %126 = add nsw i32 %125, 1
  %127 = call i32 @dual_tree_implicit_qt_split(ptr noundef %120, i32 noundef %121, i32 noundef %122, i32 noundef %124, i32 noundef %126)
  store i32 %127, ptr %16, align 4, !tbaa !9
  %128 = load i32, ptr %16, align 4, !tbaa !9
  %129 = icmp slt i32 %128, 0
  br i1 %129, label %130, label %132

130:                                              ; preds = %119
  %131 = load i32, ptr %16, align 4, !tbaa !9
  store i32 %131, ptr %6, align 4
  store i32 1, ptr %19, align 4
  br label %191

132:                                              ; preds = %119
  br label %133

133:                                              ; preds = %132
  br label %134

134:                                              ; preds = %133
  br label %135

135:                                              ; preds = %134, %111
  %136 = load i32, ptr %18, align 4, !tbaa !9
  %137 = load ptr, ptr %14, align 8, !tbaa !60
  %138 = getelementptr inbounds nuw %struct.VVCPPS, ptr %137, i32 0, i32 4
  %139 = load i16, ptr %138, align 8, !tbaa !83
  %140 = zext i16 %139 to i32
  %141 = icmp slt i32 %136, %140
  br i1 %141, label %142, label %159

142:                                              ; preds = %135
  br label %143

143:                                              ; preds = %142
  %144 = load ptr, ptr %7, align 8, !tbaa !4
  %145 = load i32, ptr %8, align 4, !tbaa !9
  %146 = load i32, ptr %18, align 4, !tbaa !9
  %147 = load i32, ptr %10, align 4, !tbaa !9
  %148 = sdiv i32 %147, 2
  %149 = load i32, ptr %11, align 4, !tbaa !9
  %150 = add nsw i32 %149, 1
  %151 = call i32 @dual_tree_implicit_qt_split(ptr noundef %144, i32 noundef %145, i32 noundef %146, i32 noundef %148, i32 noundef %150)
  store i32 %151, ptr %16, align 4, !tbaa !9
  %152 = load i32, ptr %16, align 4, !tbaa !9
  %153 = icmp slt i32 %152, 0
  br i1 %153, label %154, label %156

154:                                              ; preds = %143
  %155 = load i32, ptr %16, align 4, !tbaa !9
  store i32 %155, ptr %6, align 4
  store i32 1, ptr %19, align 4
  br label %191

156:                                              ; preds = %143
  br label %157

157:                                              ; preds = %156
  br label %158

158:                                              ; preds = %157
  br label %159

159:                                              ; preds = %158, %135
  %160 = load i32, ptr %17, align 4, !tbaa !9
  %161 = load ptr, ptr %14, align 8, !tbaa !60
  %162 = getelementptr inbounds nuw %struct.VVCPPS, ptr %161, i32 0, i32 3
  %163 = load i16, ptr %162, align 2, !tbaa !81
  %164 = zext i16 %163 to i32
  %165 = icmp slt i32 %160, %164
  br i1 %165, label %166, label %190

166:                                              ; preds = %159
  %167 = load i32, ptr %18, align 4, !tbaa !9
  %168 = load ptr, ptr %14, align 8, !tbaa !60
  %169 = getelementptr inbounds nuw %struct.VVCPPS, ptr %168, i32 0, i32 4
  %170 = load i16, ptr %169, align 8, !tbaa !83
  %171 = zext i16 %170 to i32
  %172 = icmp slt i32 %167, %171
  br i1 %172, label %173, label %190

173:                                              ; preds = %166
  br label %174

174:                                              ; preds = %173
  %175 = load ptr, ptr %7, align 8, !tbaa !4
  %176 = load i32, ptr %17, align 4, !tbaa !9
  %177 = load i32, ptr %18, align 4, !tbaa !9
  %178 = load i32, ptr %10, align 4, !tbaa !9
  %179 = sdiv i32 %178, 2
  %180 = load i32, ptr %11, align 4, !tbaa !9
  %181 = add nsw i32 %180, 1
  %182 = call i32 @dual_tree_implicit_qt_split(ptr noundef %175, i32 noundef %176, i32 noundef %177, i32 noundef %179, i32 noundef %181)
  store i32 %182, ptr %16, align 4, !tbaa !9
  %183 = load i32, ptr %16, align 4, !tbaa !9
  %184 = icmp slt i32 %183, 0
  br i1 %184, label %185, label %187

185:                                              ; preds = %174
  %186 = load i32, ptr %16, align 4, !tbaa !9
  store i32 %186, ptr %6, align 4
  store i32 1, ptr %19, align 4
  br label %191

187:                                              ; preds = %174
  br label %188

188:                                              ; preds = %187
  br label %189

189:                                              ; preds = %188
  br label %190

190:                                              ; preds = %189, %166, %159
  store i32 0, ptr %19, align 4
  br label %191

191:                                              ; preds = %190, %185, %154, %130, %107
  call void @llvm.lifetime.end.p0(i64 4, ptr %18) #7
  call void @llvm.lifetime.end.p0(i64 4, ptr %17) #7
  %192 = load i32, ptr %19, align 4
  switch i32 %192, label %234 [
    i32 0, label %193
  ]

193:                                              ; preds = %191
  br label %233

194:                                              ; preds = %5
  br label %195

195:                                              ; preds = %194
  call void @llvm.lifetime.start.p0(i64 4, ptr %20) #7
  store i32 1, ptr %20, align 4, !tbaa !9
  %196 = load ptr, ptr %7, align 8, !tbaa !4
  %197 = load i32, ptr %8, align 4, !tbaa !9
  %198 = load i32, ptr %9, align 4, !tbaa !9
  %199 = load i32, ptr %10, align 4, !tbaa !9
  %200 = load i32, ptr %10, align 4, !tbaa !9
  %201 = load i32, ptr %15, align 4, !tbaa !9
  %202 = load i32, ptr %11, align 4, !tbaa !9
  %203 = call i32 @hls_coding_tree(ptr noundef %196, i32 noundef %197, i32 noundef %198, i32 noundef %199, i32 noundef %200, i32 noundef 1, i32 noundef 0, i32 noundef %201, i32 noundef %202, i32 noundef 0, i32 noundef 0, i32 noundef 0, i32 noundef 0, i32 noundef 1, i32 noundef 0)
  store i32 %203, ptr %16, align 4, !tbaa !9
  %204 = load i32, ptr %16, align 4, !tbaa !9
  %205 = icmp slt i32 %204, 0
  br i1 %205, label %206, label %208

206:                                              ; preds = %195
  %207 = load i32, ptr %16, align 4, !tbaa !9
  store i32 %207, ptr %6, align 4
  store i32 1, ptr %19, align 4
  br label %209

208:                                              ; preds = %195
  store i32 0, ptr %19, align 4
  br label %209

209:                                              ; preds = %208, %206
  call void @llvm.lifetime.end.p0(i64 4, ptr %20) #7
  %210 = load i32, ptr %19, align 4
  switch i32 %210, label %234 [
    i32 0, label %211
  ]

211:                                              ; preds = %209
  br label %212

212:                                              ; preds = %211
  br label %213

213:                                              ; preds = %212
  br label %214

214:                                              ; preds = %213
  call void @llvm.lifetime.start.p0(i64 4, ptr %21) #7
  store i32 0, ptr %21, align 4, !tbaa !9
  %215 = load ptr, ptr %7, align 8, !tbaa !4
  %216 = load i32, ptr %8, align 4, !tbaa !9
  %217 = load i32, ptr %9, align 4, !tbaa !9
  %218 = load i32, ptr %10, align 4, !tbaa !9
  %219 = load i32, ptr %10, align 4, !tbaa !9
  %220 = load i32, ptr %15, align 4, !tbaa !9
  %221 = load i32, ptr %11, align 4, !tbaa !9
  %222 = call i32 @hls_coding_tree(ptr noundef %215, i32 noundef %216, i32 noundef %217, i32 noundef %218, i32 noundef %219, i32 noundef 0, i32 noundef 1, i32 noundef %220, i32 noundef %221, i32 noundef 0, i32 noundef 0, i32 noundef 0, i32 noundef 0, i32 noundef 2, i32 noundef 0)
  store i32 %222, ptr %16, align 4, !tbaa !9
  %223 = load i32, ptr %16, align 4, !tbaa !9
  %224 = icmp slt i32 %223, 0
  br i1 %224, label %225, label %227

225:                                              ; preds = %214
  %226 = load i32, ptr %16, align 4, !tbaa !9
  store i32 %226, ptr %6, align 4
  store i32 1, ptr %19, align 4
  br label %228

227:                                              ; preds = %214
  store i32 0, ptr %19, align 4
  br label %228

228:                                              ; preds = %227, %225
  call void @llvm.lifetime.end.p0(i64 4, ptr %21) #7
  %229 = load i32, ptr %19, align 4
  switch i32 %229, label %234 [
    i32 0, label %230
  ]

230:                                              ; preds = %228
  br label %231

231:                                              ; preds = %230
  br label %232

232:                                              ; preds = %231
  br label %233

233:                                              ; preds = %232, %193
  store i32 0, ptr %6, align 4
  store i32 1, ptr %19, align 4
  br label %234

234:                                              ; preds = %233, %228, %209, %191
  call void @llvm.lifetime.end.p0(i64 4, ptr %16) #7
  call void @llvm.lifetime.end.p0(i64 4, ptr %15) #7
  call void @llvm.lifetime.end.p0(i64 8, ptr %14) #7
  call void @llvm.lifetime.end.p0(i64 8, ptr %13) #7
  call void @llvm.lifetime.end.p0(i64 8, ptr %12) #7
  %235 = load i32, ptr %6, align 4
  ret i32 %235
}