; Function Attrs: nounwind uwtable
define internal fastcc range(i32 -2147483648, 1) i32 @dual_tree_implicit_qt_split(ptr noundef %0, i32 noundef %1, i32 noundef %2, i32 noundef range(i32 0, 65536) %3, i32 noundef %4) unnamed_addr #0 {
  %6 = getelementptr inbounds nuw i8, ptr %0, i64 4580544
  %7 = load ptr, ptr %6, align 16, !tbaa !73
  %8 = getelementptr inbounds nuw i8, ptr %7, i64 8
  %9 = load ptr, ptr %8, align 8, !tbaa !74
  %10 = getelementptr inbounds nuw i8, ptr %0, i64 4580552
  %11 = load ptr, ptr %10, align 8, !tbaa !4
  %12 = getelementptr inbounds nuw i8, ptr %11, i64 1936
  %13 = load ptr, ptr %12, align 8, !tbaa !54
  %14 = shl nsw i32 %4, 1
  %15 = icmp samesign ugt i32 %3, 64
  br i1 %15, label %16, label %71

16:                                               ; preds = %5
  %17 = lshr i32 %3, 1
  %18 = add nsw i32 %17, %1
  %19 = add nsw i32 %17, %2
  %20 = load ptr, ptr %13, align 8, !tbaa !194
  %21 = getelementptr inbounds nuw i8, ptr %20, i64 1992103
  %22 = load i8, ptr %21, align 1, !tbaa !195
  %.not = icmp eq i8 %22, 0
  br i1 %.not, label %31, label %23

23:                                               ; preds = %16
  %24 = getelementptr inbounds nuw i8, ptr %7, i64 473
  %25 = load i8, ptr %24, align 1, !tbaa !197
  %26 = zext i8 %25 to i32
  %.not95 = icmp sgt i32 %14, %26
  br i1 %.not95, label %31, label %27

27:                                               ; preds = %23
  %28 = getelementptr inbounds nuw i8, ptr %0, i64 4547668
  store i8 0, ptr %28, align 4, !tbaa !198
  %29 = getelementptr inbounds nuw i8, ptr %0, i64 4547672
  store i32 %1, ptr %29, align 8, !tbaa !199
  %30 = getelementptr inbounds nuw i8, ptr %0, i64 4547676
  store i32 %2, ptr %30, align 4, !tbaa !200
  br label %31

31:                                               ; preds = %27, %23, %16
  %32 = getelementptr inbounds nuw i8, ptr %9, i64 2330
  %33 = load i8, ptr %32, align 2, !tbaa !201
  %.not96 = icmp eq i8 %33, 0
  br i1 %.not96, label %40, label %34

34:                                               ; preds = %31
  %35 = getelementptr inbounds nuw i8, ptr %7, i64 474
  %36 = load i8, ptr %35, align 2, !tbaa !202
  %37 = zext i8 %36 to i32
  %.not97 = icmp sgt i32 %14, %37
  br i1 %.not97, label %40, label %38

38:                                               ; preds = %34
  %39 = getelementptr inbounds nuw i8, ptr %0, i64 4547680
  tail call void @llvm.memset.p0.i64(ptr noundef nonnull align 16 dereferenceable(16) %39, i8 0, i64 16, i1 false)
  br label %40

40:                                               ; preds = %31, %34, %38
  %41 = add nsw i32 %4, 1
  %42 = tail call fastcc i32 @dual_tree_implicit_qt_split(ptr noundef nonnull %0, i32 noundef %1, i32 noundef %2, i32 noundef %17, i32 noundef %41)
  %43 = icmp slt i32 %42, 0
  br i1 %43, label %.thread, label %44

44:                                               ; preds = %40
  %45 = getelementptr inbounds nuw i8, ptr %13, i64 30
  %46 = load i16, ptr %45, align 2, !tbaa !171
  %47 = zext i16 %46 to i32
  %48 = icmp slt i32 %18, %47
  br i1 %48, label %49, label %52

49:                                               ; preds = %44
  %50 = tail call fastcc i32 @dual_tree_implicit_qt_split(ptr noundef nonnull %0, i32 noundef %18, i32 noundef %2, i32 noundef %17, i32 noundef %41)
  %51 = icmp slt i32 %50, 0
  br i1 %51, label %.thread, label %52

52:                                               ; preds = %49, %44
  %53 = getelementptr inbounds nuw i8, ptr %13, i64 32
  %54 = load i16, ptr %53, align 8, !tbaa !173
  %55 = zext i16 %54 to i32
  %56 = icmp slt i32 %19, %55
  br i1 %56, label %57, label %60

57:                                               ; preds = %52
  %58 = tail call fastcc i32 @dual_tree_implicit_qt_split(ptr noundef nonnull %0, i32 noundef %1, i32 noundef %19, i32 noundef %17, i32 noundef %41)
  %59 = icmp slt i32 %58, 0
  br i1 %59, label %.thread, label %60

60:                                               ; preds = %57, %52
  %61 = load i16, ptr %45, align 2, !tbaa !171
  %62 = zext i16 %61 to i32
  %63 = icmp slt i32 %18, %62
  br i1 %63, label %64, label %77

64:                                               ; preds = %60
  %65 = load i16, ptr %53, align 8, !tbaa !173
  %66 = zext i16 %65 to i32
  %67 = icmp slt i32 %19, %66
  br i1 %67, label %68, label %77

68:                                               ; preds = %64
  %69 = tail call fastcc i32 @dual_tree_implicit_qt_split(ptr noundef nonnull %0, i32 noundef %18, i32 noundef %19, i32 noundef %17, i32 noundef %41)
  %70 = icmp slt i32 %69, 0
  br i1 %70, label %.thread, label %77

71:                                               ; preds = %5
  %72 = tail call fastcc i32 @hls_coding_tree(ptr noundef nonnull %0, i32 noundef %1, i32 noundef %2, i32 noundef %3, i32 noundef %3, i32 noundef 1, i32 noundef 0, i32 noundef %14, i32 noundef %4, i32 noundef 0, i32 noundef 0, i32 noundef 0, i32 noundef 0, i32 noundef 1, i32 noundef 0)
  %73 = icmp sgt i32 %72, -1
  br i1 %73, label %74, label %.thread

74:                                               ; preds = %71
  %75 = tail call fastcc i32 @hls_coding_tree(ptr noundef nonnull %0, i32 noundef %1, i32 noundef %2, i32 noundef %3, i32 noundef %3, i32 noundef 0, i32 noundef 1, i32 noundef %14, i32 noundef %4, i32 noundef 0, i32 noundef 0, i32 noundef 0, i32 noundef 0, i32 noundef 2, i32 noundef 0)
  %76 = icmp sgt i32 %75, -1
  br i1 %76, label %77, label %.thread

77:                                               ; preds = %68, %64, %60, %74
  br label %.thread

.thread:                                          ; preds = %68, %57, %49, %40, %74, %71, %77
  %.1 = phi i32 [ 0, %77 ], [ %75, %74 ], [ %72, %71 ], [ %69, %68 ], [ %58, %57 ], [ %50, %49 ], [ %42, %40 ]
  ret i32 %.1
}